(dp1
S'files'
p2
(dp3
S'mysite_settings'
p4
(dp5
S'index'
p6
(dp7
S'html_filename'
p8
S'mysite_settings.html'
p9
sS'name'
p10
S'mysite/settings'
p11
sS'nums'
p12
ccopy_reg
_reconstructor
p13
(ccoverage.results
Numbers
p14
c__builtin__
object
p15
NtRp16
(dp17
S'n_files'
p18
I1
sS'n_branches'
p19
I0
sS'n_statements'
p20
I20
sS'n_excluded'
p21
I0
sS'n_partial_branches'
p22
I0
sS'n_missing'
p23
I0
sS'n_missing_branches'
p24
I0
sbssS'hash'
p25
S'IZ\x00\xdb\x83\xf8\xd2W\x07\xd5[\xd2\x86\xe4\x87\xc7'
p26
ssS'mysite_urls'
p27
(dp28
g6
(dp29
S'html_filename'
p30
S'mysite_urls.html'
p31
sS'name'
p32
S'mysite/urls'
p33
sS'nums'
p34
g13
(g14
g15
NtRp35
(dp36
g18
I1
sg19
I0
sg20
I9
sg21
I0
sg22
I0
sg23
I1
sg24
I0
sbssg25
S'\xe3\x9d\x8c\xa2\xc4\xe6\xe2\xa7G\x002\xe8f\xf2\x15('
p37
ssS'menu_migrations___init__'
p38
(dp39
g6
(dp40
g8
S'menu_migrations___init__.html'
p41
sg10
S'menu/migrations/__init__'
p42
sg12
g13
(g14
g15
NtRp43
(dp44
g18
I1
sg19
I0
sg20
I0
sg21
I0
sg22
I0
sg23
I0
sg24
I0
sbssg25
S'\xca\xf5\x9f\x7f\x88\xdfa\x831|T\x1d\xbc}\xa5v'
p45
ssS'menu_tests'
p46
(dp47
g6
(dp48
S'html_filename'
p49
S'menu_tests.html'
p50
sS'name'
p51
S'menu/tests'
p52
sS'nums'
p53
g13
(g14
g15
NtRp54
(dp55
g18
I1
sg19
I0
sg20
I86
sg21
I0
sg22
I0
sg23
I0
sg24
I0
sbssg25
S'\xf8B\xf4\xdc\xd5\x92\xe2\n<\x140\x1ad\x8d\xe7S'
p56
ssS'menu_migrations_0001_initial'
p57
(dp58
g6
(dp59
g8
S'menu_migrations_0001_initial.html'
p60
sg10
S'menu/migrations/0001_initial'
p61
sg12
g13
(g14
g15
NtRp62
(dp63
g18
I1
sg19
I0
sg20
I7
sg21
I0
sg22
I0
sg23
I0
sg24
I0
sbssg25
S'\xc4_M\xa3\x1dd3\x7f\xf1\xe5\xefv\x86x\x1b?'
p64
ssS'menu_migrations_0004_auto_20180619_0740'
p65
(dp66
S'index'
p67
(dp68
g49
S'menu_migrations_0004_auto_20180619_0740.html'
p69
sg51
S'menu/migrations/0004_auto_20180619_0740'
p70
sg53
g13
(g14
g15
NtRp71
(dp72
g18
I1
sg19
I0
sg20
I6
sg21
I0
sg22
I0
sg23
I0
sg24
I0
sbssS'hash'
p73
S'\xa3\x84\xca\xb7\xb3"/\xf6JQ\x89c\xa2\xc9\xe8('
p74
ssS'menu_urls'
p75
(dp76
g6
(dp77
g8
S'menu_urls.html'
p78
sg10
S'menu/urls'
p79
sg12
g13
(g14
g15
NtRp80
(dp81
g18
I1
sg19
I0
sg20
I3
sg21
I0
sg22
I0
sg23
I0
sg24
I0
sbssg25
S'u\x05\xd6p\xb2$R\xe7c\xa7\x07\xe7\xae\xc3\xa2\xc5'
p82
ssS'manage'
p83
(dp84
g6
(dp85
g8
S'manage.html'
p86
sg10
g83
sg12
g13
(g14
g15
NtRp87
(dp88
g18
I1
sg19
I0
sg20
I6
sg21
I0
sg22
I0
sg23
I0
sg24
I0
sbssg25
S'\x9cpZ\xf3\xeb\xb2\xd7lDa\xd2\xc3\xadl\xaf\x19'
p89
ssS'menu_migrations_0003_auto_20180618_0831'
p90
(dp91
g6
(dp92
g8
S'menu_migrations_0003_auto_20180618_0831.html'
p93
sg10
S'menu/migrations/0003_auto_20180618_0831'
p94
sg12
g13
(g14
g15
NtRp95
(dp96
g18
I1
sg19
I0
sg20
I5
sg21
I0
sg22
I0
sg23
I0
sg24
I0
sbssg25
S'\x0c`\xac5\x14\xee\xdb\xc5\xfdh\x8f\xb0eu\x7f\xec'
p97
ssS'menu_migrations_0002_auto_20160406_1554'
p98
(dp99
g6
(dp100
g8
S'menu_migrations_0002_auto_20160406_1554.html'
p101
sg10
S'menu/migrations/0002_auto_20160406_1554'
p102
sg12
g13
(g14
g15
NtRp103
(dp104
g18
I1
sg19
I0
sg20
I9
sg21
I0
sg22
I0
sg23
I0
sg24
I0
sbssg25
S'\xe5\xe1$]XC\xaf\xa4\xbbG\x82\xb8}\xb5\xbe8'
p105
ssS'menu_admin'
p106
(dp107
g6
(dp108
g8
S'menu_admin.html'
p109
sg10
S'menu/admin'
p110
sg12
g13
(g14
g15
NtRp111
(dp112
g18
I1
sg19
I0
sg20
I5
sg21
I0
sg22
I0
sg23
I0
sg24
I0
sbssg25
S'\xb1\xfc\xd0\xac(.\xaa\xf1Mg\x8c/k\x18\xf5*'
p113
ssS'menu_views'
p114
(dp115
g6
(dp116
g49
S'menu_views.html'
p117
sg51
S'menu/views'
p118
sg53
g13
(g14
g15
NtRp119
(dp120
g18
I1
sg19
I0
sg20
I38
sg21
I0
sg22
I0
sg23
I8
sg24
I0
sbssg25
S'\xb9\tjeU\x99vX\xe3\xe2\xe6\x99\xe4\x84\xa7)'
p121
ssS'menu___init__'
p122
(dp123
g6
(dp124
g8
S'menu___init__.html'
p125
sg10
S'menu/__init__'
p126
sg12
g13
(g14
g15
NtRp127
(dp128
g18
I1
sg19
I0
sg20
I0
sg21
I0
sg22
I0
sg23
I0
sg24
I0
sbssg25
S'\xca\xf5\x9f\x7f\x88\xdfa\x831|T\x1d\xbc}\xa5v'
p129
ssS'menu_migrations_0006_auto_20180619_0744'
p130
(dp131
g67
(dp132
g49
S'menu_migrations_0006_auto_20180619_0744.html'
p133
sg51
S'menu/migrations/0006_auto_20180619_0744'
p134
sg53
g13
(g14
g15
NtRp135
(dp136
g18
I1
sg19
I0
sg20
I5
sg21
I0
sg22
I0
sg23
I0
sg24
I0
sbssg73
S'b\xd4u\xf3\x82\x19\xcd\xaa&\xef\xef\xdeyr14'
p137
ssS'menu_forms'
p138
(dp139
g6
(dp140
g49
S'menu_forms.html'
p141
sg51
S'menu/forms'
p142
sg53
g13
(g14
g15
NtRp143
(dp144
g18
I1
sg19
I0
sg20
I13
sg21
I0
sg22
I0
sg23
I0
sg24
I0
sbssg25
S'\xc6{ 0\xb4\x98\xdf\x82\xd4R\xa2\x19\xcb\xd7\x1e\xa2'
p145
ssS'menu_migrations_0005_change_datetime_to_date'
p146
(dp147
g67
(dp148
g49
S'menu_migrations_0005_change_datetime_to_date.html'
p149
sg51
S'menu/migrations/0005_change_datetime_to_date'
p150
sg53
g13
(g14
g15
NtRp151
(dp152
g18
I1
sg19
I0
sg20
I16
sg21
I0
sg22
I0
sg23
I6
sg24
I0
sbssg73
S'y<\xbcHp\xd61\xee\xc33\t\xabm\xb3\xb7\xf6'
p153
ssS'mysite___init__'
p154
(dp155
g6
(dp156
g8
S'mysite___init__.html'
p157
sg10
S'mysite/__init__'
p158
sg12
g13
(g14
g15
NtRp159
(dp160
g18
I1
sg19
I0
sg20
I0
sg21
I0
sg22
I0
sg23
I0
sg24
I0
sbssg25
S'\xca\xf5\x9f\x7f\x88\xdfa\x831|T\x1d\xbc}\xa5v'
p161
ssS'menu_models'
p162
(dp163
g6
(dp164
g49
S'menu_models.html'
p165
sg51
S'menu/models'
p166
sg53
g13
(g14
g15
NtRp167
(dp168
g18
I1
sg19
I0
sg20
I22
sg21
I0
sg22
I0
sg23
I0
sg24
I0
sbssg25
S'R\xb9\xf7\xfc\xb1EvG\xdfk\x10\x82\x05\x90\xba\x84'
p169
sssS'version'
p170
S'3.7.1'
p171
sS'settings'
p172
S'\xba\x9f\x06\x02\xe6\x84\x07\x9d\xc1\xb7b\xf7\xa4NuA'
p173
sS'format'
p174
I1
s.